ARM GAS  C:\Users\oscar\AppData\Local\Temp\ccXCAfkl.s 			page 1


   1              		.syntax unified
   2              		.cpu cortex-m3
   3              		.fpu softvfp
   4              		.eabi_attribute 20, 1
   5              		.eabi_attribute 21, 1
   6              		.eabi_attribute 23, 3
   7              		.eabi_attribute 24, 1
   8              		.eabi_attribute 25, 1
   9              		.eabi_attribute 26, 1
  10              		.eabi_attribute 30, 1
  11              		.eabi_attribute 34, 1
  12              		.eabi_attribute 18, 4
  13              		.thumb
  14              		.syntax unified
  15              		.file	"Button.c"
  16              		.text
  17              	.Ltext0:
  18              		.cfi_sections	.debug_frame
  19              		.section	.text.ISR_BUTTON,"ax",%progbits
  20              		.align	2
  21              		.global	ISR_BUTTON
  22              		.thumb
  23              		.thumb_func
  24              		.type	ISR_BUTTON, %function
  25              	ISR_BUTTON:
  26              	.LFB64:
  27              		.file 1 "source\\bsw\\Button.c"
   1:source\bsw/Button.c **** #include "Button.h" 
   2:source\bsw/Button.c **** #include "LEDS.h"
   3:source\bsw/Button.c **** 
   4:source\bsw/Button.c **** 
   5:source\bsw/Button.c **** 
   6:source\bsw/Button.c **** void Button_Init()
   7:source\bsw/Button.c **** {
   8:source\bsw/Button.c ****     isr_Button_StartEx(ISR_BUTTON);
   9:source\bsw/Button.c ****     
  10:source\bsw/Button.c **** }
  11:source\bsw/Button.c **** 
  12:source\bsw/Button.c **** CY_ISR(ISR_BUTTON)
  13:source\bsw/Button.c **** {
  28              		.loc 1 13 0
  29              		.cfi_startproc
  30              		@ args = 0, pretend = 0, frame = 0
  31              		@ frame_needed = 0, uses_anonymous_args = 0
  32 0000 08B5     		push	{r3, lr}
  33              		.cfi_def_cfa_offset 8
  34              		.cfi_offset 3, -8
  35              		.cfi_offset 14, -4
  14:source\bsw/Button.c ****     //CLEAR_PENDING ISR
  15:source\bsw/Button.c ****     isr_Button_ClearPending();
  36              		.loc 1 15 0
  37 0002 FFF7FEFF 		bl	isr_Button_ClearPending
  38              	.LVL0:
  16:source\bsw/Button.c ****     buttonFlag=true;
  39              		.loc 1 16 0
  40 0006 0122     		movs	r2, #1
  41 0008 014B     		ldr	r3, .L3
ARM GAS  C:\Users\oscar\AppData\Local\Temp\ccXCAfkl.s 			page 2


  42 000a 1A70     		strb	r2, [r3]
  43 000c 08BD     		pop	{r3, pc}
  44              	.L4:
  45 000e 00BF     		.align	2
  46              	.L3:
  47 0010 00000000 		.word	buttonFlag
  48              		.cfi_endproc
  49              	.LFE64:
  50              		.size	ISR_BUTTON, .-ISR_BUTTON
  51              		.section	.text.Button_Init,"ax",%progbits
  52              		.align	2
  53              		.global	Button_Init
  54              		.thumb
  55              		.thumb_func
  56              		.type	Button_Init, %function
  57              	Button_Init:
  58              	.LFB63:
   7:source\bsw/Button.c ****     isr_Button_StartEx(ISR_BUTTON);
  59              		.loc 1 7 0
  60              		.cfi_startproc
  61              		@ args = 0, pretend = 0, frame = 0
  62              		@ frame_needed = 0, uses_anonymous_args = 0
  63 0000 08B5     		push	{r3, lr}
  64              		.cfi_def_cfa_offset 8
  65              		.cfi_offset 3, -8
  66              		.cfi_offset 14, -4
   8:source\bsw/Button.c ****     
  67              		.loc 1 8 0
  68 0002 0248     		ldr	r0, .L7
  69 0004 FFF7FEFF 		bl	isr_Button_StartEx
  70              	.LVL1:
  71 0008 08BD     		pop	{r3, pc}
  72              	.L8:
  73 000a 00BF     		.align	2
  74              	.L7:
  75 000c 00000000 		.word	ISR_BUTTON
  76              		.cfi_endproc
  77              	.LFE63:
  78              		.size	Button_Init, .-Button_Init
  79              		.section	.text.buttonFlagClear,"ax",%progbits
  80              		.align	2
  81              		.global	buttonFlagClear
  82              		.thumb
  83              		.thumb_func
  84              		.type	buttonFlagClear, %function
  85              	buttonFlagClear:
  86              	.LFB65:
  17:source\bsw/Button.c ****     
  18:source\bsw/Button.c **** }
  19:source\bsw/Button.c **** void buttonFlagClear()
  20:source\bsw/Button.c **** {
  87              		.loc 1 20 0
  88              		.cfi_startproc
  89              		@ args = 0, pretend = 0, frame = 0
  90              		@ frame_needed = 0, uses_anonymous_args = 0
  91              		@ link register save eliminated.
  21:source\bsw/Button.c ****     buttonFlag=false;
ARM GAS  C:\Users\oscar\AppData\Local\Temp\ccXCAfkl.s 			page 3


  92              		.loc 1 21 0
  93 0000 0022     		movs	r2, #0
  94 0002 014B     		ldr	r3, .L10
  95 0004 1A70     		strb	r2, [r3]
  96 0006 7047     		bx	lr
  97              	.L11:
  98              		.align	2
  99              	.L10:
 100 0008 00000000 		.word	buttonFlag
 101              		.cfi_endproc
 102              	.LFE65:
 103              		.size	buttonFlagClear, .-buttonFlagClear
 104              		.text
 105              	.Letext0:
 106              		.file 2 "c:\\program files (x86)\\cypress\\psoc creator\\4.2\\psoc creator\\import\\gnu\\arm\\5.4.
 107              		.file 3 "c:\\program files (x86)\\cypress\\psoc creator\\4.2\\psoc creator\\import\\gnu\\arm\\5.4.
 108              		.file 4 ".\\source\\asw/cyapicallbacks.h"
 109              		.file 5 "Generated_Source\\PSoC5/core_cm3.h"
 110              		.file 6 "source\\bsw\\Button.h"
 111              		.file 7 "Generated_Source\\PSoC5/isr_Button.h"