ARM GAS  C:\Users\oscar\AppData\Local\Temp\cc1WpZ0s.s 			page 1


   1              		.syntax unified
   2              		.cpu cortex-m3
   3              		.fpu softvfp
   4              		.eabi_attribute 20, 1
   5              		.eabi_attribute 21, 1
   6              		.eabi_attribute 23, 3
   7              		.eabi_attribute 24, 1
   8              		.eabi_attribute 25, 1
   9              		.eabi_attribute 26, 1
  10              		.eabi_attribute 30, 1
  11              		.eabi_attribute 34, 1
  12              		.eabi_attribute 18, 4
  13              		.thumb
  14              		.syntax unified
  15              		.file	"LEDS.c"
  16              		.text
  17              	.Ltext0:
  18              		.cfi_sections	.debug_frame
  19              		.section	.text.LED_Toggle,"ax",%progbits
  20              		.align	2
  21              		.global	LED_Toggle
  22              		.thumb
  23              		.thumb_func
  24              		.type	LED_Toggle, %function
  25              	LED_Toggle:
  26              	.LFB63:
  27              		.file 1 "source\\bsw\\LEDS.c"
   1:source\bsw/LEDS.c **** #include "LEDS.h"
   2:source\bsw/LEDS.c **** 
   3:source\bsw/LEDS.c **** void LED_Toggle(LED_t LED)
   4:source\bsw/LEDS.c **** {
  28              		.loc 1 4 0
  29              		.cfi_startproc
  30              		@ args = 0, pretend = 0, frame = 0
  31              		@ frame_needed = 0, uses_anonymous_args = 0
  32              	.LVL0:
  33 0000 08B5     		push	{r3, lr}
  34              		.cfi_def_cfa_offset 8
  35              		.cfi_offset 3, -8
  36              		.cfi_offset 14, -4
   5:source\bsw/LEDS.c ****     switch(LED)
  37              		.loc 1 5 0
  38 0002 0128     		cmp	r0, #1
  39 0004 11D0     		beq	.L3
  40 0006 10B1     		cbz	r0, .L4
  41 0008 0228     		cmp	r0, #2
  42 000a 1CD0     		beq	.L5
  43 000c 08BD     		pop	{r3, pc}
  44              	.L4:
   6:source\bsw/LEDS.c ****     {
   7:source\bsw/LEDS.c ****         case(LED_GREEN): 
   8:source\bsw/LEDS.c ****         LED_green_Write((LED_green_Read()+1)%2);
  45              		.loc 1 8 0
  46 000e FFF7FEFF 		bl	LED_green_Read
  47              	.LVL1:
  48 0012 0130     		adds	r0, r0, #1
  49 0014 134B     		ldr	r3, .L10
ARM GAS  C:\Users\oscar\AppData\Local\Temp\cc1WpZ0s.s 			page 2


  50 0016 1840     		ands	r0, r0, r3
  51 0018 03D5     		bpl	.L6
  52 001a 0138     		subs	r0, r0, #1
  53 001c 60F00100 		orn	r0, r0, #1
  54 0020 0130     		adds	r0, r0, #1
  55              	.L6:
  56 0022 C0B2     		uxtb	r0, r0
  57 0024 FFF7FEFF 		bl	LED_green_Write
  58              	.LVL2:
   9:source\bsw/LEDS.c ****         break; 
  59              		.loc 1 9 0
  60 0028 08BD     		pop	{r3, pc}
  61              	.LVL3:
  62              	.L3:
  10:source\bsw/LEDS.c ****         case(LED_YELLOW): 
  11:source\bsw/LEDS.c ****         LED_yellow_Write((LED_yellow_Read()+1)%2);
  63              		.loc 1 11 0
  64 002a FFF7FEFF 		bl	LED_yellow_Read
  65              	.LVL4:
  66 002e 0130     		adds	r0, r0, #1
  67 0030 0C4B     		ldr	r3, .L10
  68 0032 1840     		ands	r0, r0, r3
  69 0034 03D5     		bpl	.L7
  70 0036 0138     		subs	r0, r0, #1
  71 0038 60F00100 		orn	r0, r0, #1
  72 003c 0130     		adds	r0, r0, #1
  73              	.L7:
  74 003e C0B2     		uxtb	r0, r0
  75 0040 FFF7FEFF 		bl	LED_yellow_Write
  76              	.LVL5:
  12:source\bsw/LEDS.c ****         break; 
  77              		.loc 1 12 0
  78 0044 08BD     		pop	{r3, pc}
  79              	.LVL6:
  80              	.L5:
  13:source\bsw/LEDS.c ****         case(LED_RED): 
  14:source\bsw/LEDS.c ****         LED_red_Write((LED_red_Read()+1)%2);
  81              		.loc 1 14 0
  82 0046 FFF7FEFF 		bl	LED_red_Read
  83              	.LVL7:
  84 004a 0130     		adds	r0, r0, #1
  85 004c 054B     		ldr	r3, .L10
  86 004e 1840     		ands	r0, r0, r3
  87 0050 03D5     		bpl	.L8
  88 0052 0138     		subs	r0, r0, #1
  89 0054 60F00100 		orn	r0, r0, #1
  90 0058 0130     		adds	r0, r0, #1
  91              	.L8:
  92 005a C0B2     		uxtb	r0, r0
  93 005c FFF7FEFF 		bl	LED_red_Write
  94              	.LVL8:
  95 0060 08BD     		pop	{r3, pc}
  96              	.L11:
  97 0062 00BF     		.align	2
  98              	.L10:
  99 0064 01000080 		.word	-2147483647
 100              		.cfi_endproc
ARM GAS  C:\Users\oscar\AppData\Local\Temp\cc1WpZ0s.s 			page 3


 101              	.LFE63:
 102              		.size	LED_Toggle, .-LED_Toggle
 103              		.section	.text.LED_INIT,"ax",%progbits
 104              		.align	2
 105              		.global	LED_INIT
 106              		.thumb
 107              		.thumb_func
 108              		.type	LED_INIT, %function
 109              	LED_INIT:
 110              	.LFB64:
  15:source\bsw/LEDS.c ****         break;
  16:source\bsw/LEDS.c ****     }
  17:source\bsw/LEDS.c ****     
  18:source\bsw/LEDS.c ****     
  19:source\bsw/LEDS.c **** }
  20:source\bsw/LEDS.c **** void LED_INIT()
  21:source\bsw/LEDS.c **** {
 111              		.loc 1 21 0
 112              		.cfi_startproc
 113              		@ args = 0, pretend = 0, frame = 0
 114              		@ frame_needed = 0, uses_anonymous_args = 0
 115 0000 08B5     		push	{r3, lr}
 116              		.cfi_def_cfa_offset 8
 117              		.cfi_offset 3, -8
 118              		.cfi_offset 14, -4
  22:source\bsw/LEDS.c ****     LED_green_Write(0); 
 119              		.loc 1 22 0
 120 0002 0020     		movs	r0, #0
 121 0004 FFF7FEFF 		bl	LED_green_Write
 122              	.LVL9:
  23:source\bsw/LEDS.c ****     LED_yellow_Write(0);
 123              		.loc 1 23 0
 124 0008 0020     		movs	r0, #0
 125 000a FFF7FEFF 		bl	LED_yellow_Write
 126              	.LVL10:
  24:source\bsw/LEDS.c ****     LED_red_Write(0);
 127              		.loc 1 24 0
 128 000e 0020     		movs	r0, #0
 129 0010 FFF7FEFF 		bl	LED_red_Write
 130              	.LVL11:
 131 0014 08BD     		pop	{r3, pc}
 132              		.cfi_endproc
 133              	.LFE64:
 134              		.size	LED_INIT, .-LED_INIT
 135 0016 00BF     		.text
 136              	.Letext0:
 137              		.file 2 "c:\\program files (x86)\\cypress\\psoc creator\\4.2\\psoc creator\\import\\gnu\\arm\\5.4.
 138              		.file 3 "c:\\program files (x86)\\cypress\\psoc creator\\4.2\\psoc creator\\import\\gnu\\arm\\5.4.
 139              		.file 4 "source\\bsw\\LEDS.h"
 140              		.file 5 "Generated_Source\\PSoC5/LED_green.h"
 141              		.file 6 "Generated_Source\\PSoC5/LED_yellow.h"
 142              		.file 7 "Generated_Source\\PSoC5/LED_red.h"
 143              		.file 8 "Generated_Source\\PSoC5/core_cm3.h"